target datalayout = "e-m:e-p270:32:32-p271:32:32-p272:64:64-i64:64-i128:128-f80:128-n8:16:32:64-S128"
target triple = "x86_64-pc-linux-gnu"

%"class.boost::log::v2_mt_posix::attribute_set" = type { ptr }
%"struct.boost::log::v2_mt_posix::attribute_set::implementation" = type { %"class.boost::intrusive::list", %"class.boost::log::v2_mt_posix::pool_allocator", [16 x %"struct.boost::log::v2_mt_posix::attribute_set::implementation::bucket"] }
%"class.boost::intrusive::list" = type { %"class.boost::intrusive::list_impl" }
%"class.boost::intrusive::list_impl" = type { %"struct.boost::intrusive::list_impl<boost::intrusive::derivation_value_traits<boost::log::v2_mt_posix::attribute_set::node, boost::log::v2_mt_posix::attribute_set::implementation::node_traits, boost::intrusive::normal_link>, unsigned long, true, void>::data_t" }
%"struct.boost::intrusive::list_impl<boost::intrusive::derivation_value_traits<boost::log::v2_mt_posix::attribute_set::node, boost::log::v2_mt_posix::attribute_set::implementation::node_traits, boost::intrusive::normal_link>, unsigned long, true, void>::data_t" = type { %"struct.boost::intrusive::list_impl<boost::intrusive::derivation_value_traits<boost::log::v2_mt_posix::attribute_set::node, boost::log::v2_mt_posix::attribute_set::implementation::node_traits, boost::intrusive::normal_link>, unsigned long, true, void>::root_plus_size" }
%"struct.boost::intrusive::list_impl<boost::intrusive::derivation_value_traits<boost::log::v2_mt_posix::attribute_set::node, boost::log::v2_mt_posix::attribute_set::implementation::node_traits, boost::intrusive::normal_link>, unsigned long, true, void>::root_plus_size" = type { %"struct.boost::intrusive::detail::size_holder", %"struct.boost::intrusive::detail::default_header_holder" }
%"struct.boost::intrusive::detail::size_holder" = type { i64 }
%"struct.boost::intrusive::detail::default_header_holder" = type { %"struct.boost::log::v2_mt_posix::attribute_set::node_base" }
%"struct.boost::log::v2_mt_posix::attribute_set::node_base" = type { ptr, ptr }
%"class.boost::log::v2_mt_posix::pool_allocator" = type { [8 x ptr], i64 }
%"struct.boost::log::v2_mt_posix::attribute_set::implementation::bucket" = type { ptr, ptr }
%"struct.boost::intrusive::derivation_value_traits" = type { i8 }

; Function Attrs: inlinehint mustprogress nounwind uwtable
define linkonce_odr hidden noundef ptr @_ZN5boost11move_detail9addressofINS_3log11v2_mt_posix13attribute_set9node_baseEEEPT_RS6_(ptr noundef nonnull align 8 dereferenceable(16) %0) #8 comdat {
  %2 = alloca ptr, align 8
  store ptr %0, ptr %2, align 8, !tbaa !7
  %3 = load ptr, ptr %2, align 8, !tbaa !7
  ret ptr %3
}

; Function Attrs: inlinehint mustprogress nounwind uwtable
define linkonce_odr hidden void @_ZN5boost3log11v2_mt_posix13attribute_set9node_baseC2Ev(ptr noundef nonnull align 8 dereferenceable(16) %0) unnamed_addr #8 comdat align 2 {
  %2 = alloca ptr, align 8
  store ptr %0, ptr %2, align 8, !tbaa !7
  %3 = load ptr, ptr %2, align 8
  %4 = getelementptr inbounds nuw %"struct.boost::log::v2_mt_posix::attribute_set::node_base", ptr %3, i32 0, i32 0
  store ptr null, ptr %4, align 8, !tbaa !34
  %5 = getelementptr inbounds nuw %"struct.boost::log::v2_mt_posix::attribute_set::node_base", ptr %3, i32 0, i32 1
  store ptr null, ptr %5, align 8, !tbaa !27
  ret void
}

; Function Attrs: inlinehint mustprogress nounwind uwtable
define linkonce_odr hidden noundef ptr @_ZN5boost9intrusive14pointer_traitsIPNS_3log11v2_mt_posix13attribute_set9node_baseEE10pointer_toERS5_(ptr noundef nonnull align 8 dereferenceable(16) %0) #8 comdat align 2 {
  %2 = alloca ptr, align 8
  store ptr %0, ptr %2, align 8, !tbaa !7
  %3 = load ptr, ptr %2, align 8, !tbaa !7
  %4 = call noundef ptr @_ZN5boost11move_detail9addressofINS_3log11v2_mt_posix13attribute_set9node_baseEEEPT_RS6_(ptr noundef nonnull align 8 dereferenceable(16) %3) #13
  ret ptr %4
}

; Function Attrs: mustprogress uwtable
define linkonce_odr hidden void @_ZN5boost9intrusive6detail21default_header_holderINS_3log11v2_mt_posix13attribute_set14implementation11node_traitsEEC2Ev(ptr noundef nonnull align 8 dereferenceable(16) %0) unnamed_addr #0 comdat align 2 {
  %2 = alloca ptr, align 8
  store ptr %0, ptr %2, align 8, !tbaa !7
  %3 = load ptr, ptr %2, align 8
  call void @_ZN5boost3log11v2_mt_posix13attribute_set9node_baseC2Ev(ptr noundef nonnull align 8 dereferenceable(16) %3)
  ret void
}

; Function Attrs: mustprogress nounwind uwtable
define linkonce_odr hidden void @_ZN5boost3log11v2_mt_posix13attribute_set14implementation11node_traits12set_previousEPNS2_9node_baseES6_(ptr noundef %0, ptr noundef %1) #2 comdat align 2 {
  %3 = alloca ptr, align 8
  %4 = alloca ptr, align 8
  store ptr %0, ptr %3, align 8, !tbaa !7
  store ptr %1, ptr %4, align 8, !tbaa !7
  %5 = load ptr, ptr %4, align 8, !tbaa !7
  %6 = load ptr, ptr %3, align 8, !tbaa !7
  %7 = getelementptr inbounds nuw %"struct.boost::log::v2_mt_posix::attribute_set::node_base", ptr %6, i32 0, i32 0
  store ptr %5, ptr %7, align 8, !tbaa !34
  ret void
}

; Function Attrs: mustprogress nounwind uwtable
define linkonce_odr hidden void @_ZN5boost3log11v2_mt_posix13attribute_set14implementation11node_traits8set_nextEPNS2_9node_baseES6_(ptr noundef %0, ptr noundef %1) #2 comdat align 2 {
  %3 = alloca ptr, align 8
  %4 = alloca ptr, align 8
  store ptr %0, ptr %3, align 8, !tbaa !7
  store ptr %1, ptr %4, align 8, !tbaa !7
  %5 = load ptr, ptr %4, align 8, !tbaa !7
  %6 = load ptr, ptr %3, align 8, !tbaa !7
  %7 = getelementptr inbounds nuw %"struct.boost::log::v2_mt_posix::attribute_set::node_base", ptr %6, i32 0, i32 1
  store ptr %5, ptr %7, align 8, !tbaa !27
  ret void
}

; Function Attrs: inlinehint mustprogress nounwind uwtable
define linkonce_odr hidden noundef ptr @_ZN5boost9intrusive6detail21default_header_holderINS_3log11v2_mt_posix13attribute_set14implementation11node_traitsEE8get_nodeEv(ptr noundef nonnull align 8 dereferenceable(16) %0) #8 comdat align 2 {
  %2 = alloca ptr, align 8
  store ptr %0, ptr %2, align 8, !tbaa !7
  %3 = load ptr, ptr %2, align 8
  %4 = call noundef ptr @_ZN5boost9intrusive14pointer_traitsIPNS_3log11v2_mt_posix13attribute_set9node_baseEE10pointer_toERS5_(ptr noundef nonnull align 8 dereferenceable(16) %3) #13
  ret ptr %4
}

; Function Attrs: inlinehint mustprogress uwtable
define linkonce_odr hidden void @_ZN5boost9intrusive9list_implINS0_23derivation_value_traitsINS_3log11v2_mt_posix13attribute_set4nodeENS5_14implementation11node_traitsELNS0_14link_mode_typeE0EEEmLb1EvE14root_plus_sizeC2Ev(ptr noundef nonnull align 8 dereferenceable(24) %0) unnamed_addr #7 comdat align 2 {
  %2 = alloca ptr, align 8
  store ptr %0, ptr %2, align 8, !tbaa !7
  %3 = load ptr, ptr %2, align 8
  %4 = getelementptr inbounds nuw %"struct.boost::intrusive::list_impl<boost::intrusive::derivation_value_traits<boost::log::v2_mt_posix::attribute_set::node, boost::log::v2_mt_posix::attribute_set::implementation::node_traits, boost::intrusive::normal_link>, unsigned long, true, void>::root_plus_size", ptr %3, i32 0, i32 1
  call void @_ZN5boost9intrusive6detail21default_header_holderINS_3log11v2_mt_posix13attribute_set14implementation11node_traitsEEC2Ev(ptr noundef nonnull align 8 dereferenceable(16) %4)
  ret void
}

; Function Attrs: mustprogress nounwind uwtable
define linkonce_odr hidden void @_ZNSt15__new_allocatorIN5boost3log11v2_mt_posix13attribute_set4nodeEE10deallocateEPS4_m(ptr noundef nonnull align 1 dereferenceable(1) %0, ptr noundef %1, i64 noundef %2) #2 comdat align 2 {
  %4 = alloca ptr, align 8
  %5 = alloca ptr, align 8
  %6 = alloca i64, align 8
  store ptr %0, ptr %4, align 8, !tbaa !7
  store ptr %1, ptr %5, align 8, !tbaa !7
  store i64 %2, ptr %6, align 8, !tbaa !3
  %7 = load ptr, ptr %5, align 8, !tbaa !7
  %8 = load i64, ptr %6, align 8, !tbaa !3
  %9 = mul i64 %8, 32
  call void @_ZdlPvm(ptr noundef %7, i64 noundef %9) #18
  ret void
}

; Function Attrs: mustprogress nounwind uwtable
define linkonce_odr hidden void @_ZNSt15__new_allocatorIN5boost3log11v2_mt_posix13attribute_set4nodeEEC2Ev(ptr noundef nonnull align 1 dereferenceable(1) %0) unnamed_addr #2 comdat align 2 {
  %2 = alloca ptr, align 8
  store ptr %0, ptr %2, align 8, !tbaa !7
  ret void
}

; Function Attrs: mustprogress nounwind uwtable
define linkonce_odr hidden void @_ZN5boost9intrusive24circular_list_algorithmsINS_3log11v2_mt_posix13attribute_set14implementation11node_traitsEE11init_headerEPNS4_9node_baseE(ptr noundef %0) #2 comdat align 2 personality ptr @__gxx_personality_v0 {
  %2 = alloca ptr, align 8
  store ptr %0, ptr %2, align 8, !tbaa !7
  %3 = load ptr, ptr %2, align 8, !tbaa !7
  %4 = load ptr, ptr %2, align 8, !tbaa !7
  invoke void @_ZN5boost3log11v2_mt_posix13attribute_set14implementation11node_traits8set_nextEPNS2_9node_baseES6_(ptr noundef %3, ptr noundef %4)
          to label %5 unwind label %9

5:                                                ; preds = %1
  %6 = load ptr, ptr %2, align 8, !tbaa !7
  %7 = load ptr, ptr %2, align 8, !tbaa !7
  invoke void @_ZN5boost3log11v2_mt_posix13attribute_set14implementation11node_traits12set_previousEPNS2_9node_baseES6_(ptr noundef %6, ptr noundef %7)
          to label %8 unwind label %9

8:                                                ; preds = %5
  ret void

9:                                                ; preds = %5, %1
  %10 = landingpad { ptr, i32 }
          catch ptr null
  %11 = extractvalue { ptr, i32 } %10, 0
  call void @__clang_call_terminate(ptr %11) #16
  unreachable
}

; Function Attrs: inlinehint mustprogress uwtable
define linkonce_odr hidden noundef ptr @_ZN5boost9intrusive9list_implINS0_23derivation_value_traitsINS_3log11v2_mt_posix13attribute_set4nodeENS5_14implementation11node_traitsELNS0_14link_mode_typeE0EEEmLb1EvE13get_root_nodeEv(ptr noundef nonnull align 8 dereferenceable(24) %0) #7 comdat align 2 {
  %2 = alloca ptr, align 8
  store ptr %0, ptr %2, align 8, !tbaa !7
  %3 = load ptr, ptr %2, align 8
  %4 = getelementptr inbounds nuw %"class.boost::intrusive::list_impl", ptr %3, i32 0, i32 0
  %5 = getelementptr inbounds nuw %"struct.boost::intrusive::list_impl<boost::intrusive::derivation_value_traits<boost::log::v2_mt_posix::attribute_set::node, boost::log::v2_mt_posix::attribute_set::implementation::node_traits, boost::intrusive::normal_link>, unsigned long, true, void>::data_t", ptr %4, i32 0, i32 0
  %6 = getelementptr inbounds nuw %"struct.boost::intrusive::list_impl<boost::intrusive::derivation_value_traits<boost::log::v2_mt_posix::attribute_set::node, boost::log::v2_mt_posix::attribute_set::implementation::node_traits, boost::intrusive::normal_link>, unsigned long, true, void>::root_plus_size", ptr %5, i32 0, i32 1
  %7 = call noundef ptr @_ZN5boost9intrusive6detail21default_header_holderINS_3log11v2_mt_posix13attribute_set14implementation11node_traitsEE8get_nodeEv(ptr noundef nonnull align 8 dereferenceable(16) %6)
  ret ptr %7
}

; Function Attrs: inlinehint mustprogress nounwind uwtable
define linkonce_odr hidden void @_ZN5boost9intrusive6detail11size_holderILb1EmvE8set_sizeEm(ptr noundef nonnull align 8 dereferenceable(8) %0, i64 noundef %1) #8 comdat align 2 {
  %3 = alloca ptr, align 8
  %4 = alloca i64, align 8
  store ptr %0, ptr %3, align 8, !tbaa !7
  store i64 %1, ptr %4, align 8, !tbaa !3
  %5 = load ptr, ptr %3, align 8
  %6 = load i64, ptr %4, align 8, !tbaa !3
  %7 = getelementptr inbounds nuw %"struct.boost::intrusive::detail::size_holder", ptr %5, i32 0, i32 0
  store i64 %6, ptr %7, align 8, !tbaa !32
  ret void
}

; Function Attrs: inlinehint mustprogress nounwind uwtable
define linkonce_odr hidden noundef nonnull align 8 dereferenceable(8) ptr @_ZN5boost9intrusive9list_implINS0_23derivation_value_traitsINS_3log11v2_mt_posix13attribute_set4nodeENS5_14implementation11node_traitsELNS0_14link_mode_typeE0EEEmLb1EvE16priv_size_traitsEv(ptr noundef nonnull align 8 dereferenceable(24) %0) #8 comdat align 2 {
  %2 = alloca ptr, align 8
  store ptr %0, ptr %2, align 8, !tbaa !7
  %3 = load ptr, ptr %2, align 8
  %4 = getelementptr inbounds nuw %"class.boost::intrusive::list_impl", ptr %3, i32 0, i32 0
  %5 = getelementptr inbounds nuw %"struct.boost::intrusive::list_impl<boost::intrusive::derivation_value_traits<boost::log::v2_mt_posix::attribute_set::node, boost::log::v2_mt_posix::attribute_set::implementation::node_traits, boost::intrusive::normal_link>, unsigned long, true, void>::data_t", ptr %4, i32 0, i32 0
  ret ptr %5
}

; Function Attrs: inlinehint mustprogress uwtable
define linkonce_odr hidden void @_ZN5boost9intrusive9list_implINS0_23derivation_value_traitsINS_3log11v2_mt_posix13attribute_set4nodeENS5_14implementation11node_traitsELNS0_14link_mode_typeE0EEEmLb1EvE6data_tC2ERKSA_(ptr noundef nonnull align 8 dereferenceable(24) %0, ptr noundef nonnull align 1 dereferenceable(1) %1) unnamed_addr #7 comdat align 2 {
  %3 = alloca ptr, align 8
  %4 = alloca ptr, align 8
  store ptr %0, ptr %3, align 8, !tbaa !7
  store ptr %1, ptr %4, align 8, !tbaa !7
  %5 = load ptr, ptr %3, align 8
  %6 = getelementptr inbounds nuw %"struct.boost::intrusive::list_impl<boost::intrusive::derivation_value_traits<boost::log::v2_mt_posix::attribute_set::node, boost::log::v2_mt_posix::attribute_set::implementation::node_traits, boost::intrusive::normal_link>, unsigned long, true, void>::data_t", ptr %5, i32 0, i32 0
  call void @_ZN5boost9intrusive9list_implINS0_23derivation_value_traitsINS_3log11v2_mt_posix13attribute_set4nodeENS5_14implementation11node_traitsELNS0_14link_mode_typeE0EEEmLb1EvE14root_plus_sizeC2Ev(ptr noundef nonnull align 8 dereferenceable(24) %6)
  ret void
}

; Function Attrs: noinline noreturn nounwind uwtable
define linkonce_odr hidden void @__clang_call_terminate(ptr noundef %0) #3 comdat {
  %2 = call ptr @__cxa_begin_catch(ptr %0) #13
  call void @_ZSt9terminatev() #16
  unreachable
}

; Function Attrs: mustprogress nounwind uwtable
define linkonce_odr hidden void @_ZNSt15__new_allocatorIN5boost3log11v2_mt_posix13attribute_set4nodeEED2Ev(ptr noundef nonnull align 1 dereferenceable(1) %0) unnamed_addr #2 comdat align 2 {
  %2 = alloca ptr, align 8
  store ptr %0, ptr %2, align 8, !tbaa !7
  ret void
}

; Function Attrs: mustprogress uwtable
define linkonce_odr hidden void @_ZNSt16allocator_traitsISaIN5boost3log11v2_mt_posix13attribute_set4nodeEEE10deallocateERS5_PS4_m(ptr noundef nonnull align 1 dereferenceable(1) %0, ptr noundef %1, i64 noundef %2) #0 comdat align 2 {
  %4 = alloca ptr, align 8
  %5 = alloca ptr, align 8
  %6 = alloca i64, align 8
  store ptr %0, ptr %4, align 8, !tbaa !7
  store ptr %1, ptr %5, align 8, !tbaa !7
  store i64 %2, ptr %6, align 8, !tbaa !3
  %7 = load ptr, ptr %4, align 8, !tbaa !7
  %8 = load ptr, ptr %5, align 8, !tbaa !7
  %9 = load i64, ptr %6, align 8, !tbaa !3
  call void @_ZNSt15__new_allocatorIN5boost3log11v2_mt_posix13attribute_set4nodeEE10deallocateEPS4_m(ptr noundef nonnull align 1 dereferenceable(1) %7, ptr noundef %8, i64 noundef %9)
  ret void
}

; Function Attrs: mustprogress nounwind uwtable
define linkonce_odr hidden void @_ZNSaIN5boost3log11v2_mt_posix13attribute_set4nodeEEC2Ev(ptr noundef nonnull align 1 dereferenceable(1) %0) unnamed_addr #2 comdat align 2 {
  %2 = alloca ptr, align 8
  store ptr %0, ptr %2, align 8, !tbaa !7
  %3 = load ptr, ptr %2, align 8
  call void @_ZNSt15__new_allocatorIN5boost3log11v2_mt_posix13attribute_set4nodeEEC2Ev(ptr noundef nonnull align 1 dereferenceable(1) %3) #13
  ret void
}

; Function Attrs: mustprogress uwtable
define linkonce_odr hidden void @_ZN5boost9intrusive9list_implINS0_23derivation_value_traitsINS_3log11v2_mt_posix13attribute_set4nodeENS5_14implementation11node_traitsELNS0_14link_mode_typeE0EEEmLb1EvEC2Ev(ptr noundef nonnull align 8 dereferenceable(24) %0) unnamed_addr #0 comdat align 2 {
  %2 = alloca ptr, align 8
  %3 = alloca %"struct.boost::intrusive::derivation_value_traits", align 1
  store ptr %0, ptr %2, align 8, !tbaa !7
  %4 = load ptr, ptr %2, align 8
  %5 = getelementptr inbounds nuw %"class.boost::intrusive::list_impl", ptr %4, i32 0, i32 0
  call void @llvm.lifetime.start.p0(i64 1, ptr %3) #13
  call void @_ZN5boost9intrusive9list_implINS0_23derivation_value_traitsINS_3log11v2_mt_posix13attribute_set4nodeENS5_14implementation11node_traitsELNS0_14link_mode_typeE0EEEmLb1EvE6data_tC2ERKSA_(ptr noundef nonnull align 8 dereferenceable(24) %5, ptr noundef nonnull align 1 dereferenceable(1) %3)
  call void @llvm.lifetime.end.p0(i64 1, ptr %3) #13
  %6 = call noundef nonnull align 8 dereferenceable(8) ptr @_ZN5boost9intrusive9list_implINS0_23derivation_value_traitsINS_3log11v2_mt_posix13attribute_set4nodeENS5_14implementation11node_traitsELNS0_14link_mode_typeE0EEEmLb1EvE16priv_size_traitsEv(ptr noundef nonnull align 8 dereferenceable(24) %4) #13
  call void @_ZN5boost9intrusive6detail11size_holderILb1EmvE8set_sizeEm(ptr noundef nonnull align 8 dereferenceable(8) %6, i64 noundef 0)
  %7 = call noundef ptr @_ZN5boost9intrusive9list_implINS0_23derivation_value_traitsINS_3log11v2_mt_posix13attribute_set4nodeENS5_14implementation11node_traitsELNS0_14link_mode_typeE0EEEmLb1EvE13get_root_nodeEv(ptr noundef nonnull align 8 dereferenceable(24) %4)
  call void @_ZN5boost9intrusive24circular_list_algorithmsINS_3log11v2_mt_posix13attribute_set14implementation11node_traitsEE11init_headerEPNS4_9node_baseE(ptr noundef %7) #13
  ret void
}

; Function Attrs: mustprogress nounwind uwtable
define linkonce_odr hidden void @_ZN5boost9intrusive9list_implINS0_23derivation_value_traitsINS_3log11v2_mt_posix13attribute_set4nodeENS5_14implementation11node_traitsELNS0_14link_mode_typeE0EEEmLb1EvED2Ev(ptr noundef nonnull align 8 dereferenceable(24) %0) unnamed_addr #2 comdat align 2 {
  %2 = alloca ptr, align 8
  store ptr %0, ptr %2, align 8, !tbaa !7
  ret void
}

; Function Attrs: mustprogress nounwind uwtable
define linkonce_odr hidden void @_ZN5boost3log11v2_mt_posix14pool_allocatorINS1_13attribute_set4nodeEED2Ev(ptr noundef nonnull align 8 dereferenceable(72) %0) unnamed_addr #2 comdat align 2 personality ptr @__gxx_personality_v0 {
  %2 = alloca ptr, align 8
  %3 = alloca i64, align 8
  store ptr %0, ptr %2, align 8, !tbaa !7
  %4 = load ptr, ptr %2, align 8
  call void @llvm.lifetime.start.p0(i64 8, ptr %3) #13
  store i64 0, ptr %3, align 8, !tbaa !3
  br label %5

5:                                                ; preds = %17, %1
  %6 = load i64, ptr %3, align 8, !tbaa !3
  %7 = getelementptr inbounds nuw %"class.boost::log::v2_mt_posix::pool_allocator", ptr %4, i32 0, i32 1
  %8 = load i64, ptr %7, align 8, !tbaa !29
  %9 = icmp ult i64 %6, %8
  br i1 %9, label %11, label %10

10:                                               ; preds = %5
  call void @llvm.lifetime.end.p0(i64 8, ptr %3) #13
  br label %20

11:                                               ; preds = %5
  %12 = getelementptr inbounds nuw %"class.boost::log::v2_mt_posix::pool_allocator", ptr %4, i32 0, i32 0
  %13 = load i64, ptr %3, align 8, !tbaa !3
  %14 = getelementptr inbounds nuw [8 x ptr], ptr %12, i64 0, i64 %13
  %15 = load ptr, ptr %14, align 8, !tbaa !7
  invoke void @_ZNSt16allocator_traitsISaIN5boost3log11v2_mt_posix13attribute_set4nodeEEE10deallocateERS5_PS4_m(ptr noundef nonnull align 1 dereferenceable(1) %4, ptr noundef %15, i64 noundef 1)
          to label %16 unwind label %21

16:                                               ; preds = %11
  br label %17

17:                                               ; preds = %16
  %18 = load i64, ptr %3, align 8, !tbaa !3
  %19 = add i64 %18, 1
  store i64 %19, ptr %3, align 8, !tbaa !3
  br label %5, !llvm.loop !31

20:                                               ; preds = %10
  call void @_ZNSt15__new_allocatorIN5boost3log11v2_mt_posix13attribute_set4nodeEED2Ev(ptr noundef nonnull align 1 dereferenceable(1) %4) #13
  ret void

21:                                               ; preds = %11
  %22 = landingpad { ptr, i32 }
          catch ptr null
  %23 = extractvalue { ptr, i32 } %22, 0
  call void @__clang_call_terminate(ptr %23) #16
  unreachable
}

; Function Attrs: mustprogress nounwind uwtable
define linkonce_odr hidden void @_ZN5boost3log11v2_mt_posix13attribute_set14implementation6bucketC2Ev(ptr noundef nonnull align 8 dereferenceable(16) %0) unnamed_addr #2 comdat align 2 {
  %2 = alloca ptr, align 8
  store ptr %0, ptr %2, align 8, !tbaa !7
  %3 = load ptr, ptr %2, align 8
  %4 = getelementptr inbounds nuw %"struct.boost::log::v2_mt_posix::attribute_set::implementation::bucket", ptr %3, i32 0, i32 0
  store ptr null, ptr %4, align 8, !tbaa !11
  %5 = getelementptr inbounds nuw %"struct.boost::log::v2_mt_posix::attribute_set::implementation::bucket", ptr %3, i32 0, i32 1
  store ptr null, ptr %5, align 8, !tbaa !13
  ret void
}

; Function Attrs: mustprogress nounwind uwtable
define linkonce_odr hidden void @_ZN5boost3log11v2_mt_posix14pool_allocatorINS1_13attribute_set4nodeEEC2Ev(ptr noundef nonnull align 8 dereferenceable(72) %0) unnamed_addr #2 comdat align 2 {
  %2 = alloca ptr, align 8
  store ptr %0, ptr %2, align 8, !tbaa !7
  %3 = load ptr, ptr %2, align 8
  call void @_ZNSaIN5boost3log11v2_mt_posix13attribute_set4nodeEEC2Ev(ptr noundef nonnull align 1 dereferenceable(1) %3) #13
  %4 = getelementptr inbounds nuw %"class.boost::log::v2_mt_posix::pool_allocator", ptr %3, i32 0, i32 1
  store i64 0, ptr %4, align 8, !tbaa !29
  ret void
}

; Function Attrs: inlinehint mustprogress uwtable
define linkonce_odr hidden void @_ZN5boost9intrusive4listINS_3log11v2_mt_posix13attribute_set4nodeEJNS0_12value_traitsINS0_23derivation_value_traitsIS5_NS4_14implementation11node_traitsELNS0_14link_mode_typeE0EEEEENS0_18constant_time_sizeILb1EEEEEC2Ev(ptr noundef nonnull align 8 dereferenceable(24) %0) unnamed_addr #7 comdat align 2 {
  %2 = alloca ptr, align 8
  store ptr %0, ptr %2, align 8, !tbaa !7
  %3 = load ptr, ptr %2, align 8
  call void @_ZN5boost9intrusive9list_implINS0_23derivation_value_traitsINS_3log11v2_mt_posix13attribute_set4nodeENS5_14implementation11node_traitsELNS0_14link_mode_typeE0EEEmLb1EvEC2Ev(ptr noundef nonnull align 8 dereferenceable(24) %3)
  ret void
}

; Function Attrs: mustprogress uwtable
define linkonce_odr hidden void @_ZN5boost3log11v2_mt_posix13attribute_set14implementationC2Ev(ptr noundef nonnull align 8 dereferenceable(352) %0) unnamed_addr #0 comdat align 2 personality ptr @__gxx_personality_v0 {
  %2 = alloca ptr, align 8
  %3 = alloca ptr, align 8
  %4 = alloca i32, align 4
  store ptr %0, ptr %2, align 8, !tbaa !7
  %5 = load ptr, ptr %2, align 8
  %6 = getelementptr inbounds nuw %"struct.boost::log::v2_mt_posix::attribute_set::implementation", ptr %5, i32 0, i32 0
  call void @_ZN5boost9intrusive4listINS_3log11v2_mt_posix13attribute_set4nodeEJNS0_12value_traitsINS0_23derivation_value_traitsIS5_NS4_14implementation11node_traitsELNS0_14link_mode_typeE0EEEEENS0_18constant_time_sizeILb1EEEEEC2Ev(ptr noundef nonnull align 8 dereferenceable(24) %6)
  %7 = getelementptr inbounds nuw %"struct.boost::log::v2_mt_posix::attribute_set::implementation", ptr %5, i32 0, i32 1
  invoke void @_ZN5boost3log11v2_mt_posix14pool_allocatorINS1_13attribute_set4nodeEEC2Ev(ptr noundef nonnull align 8 dereferenceable(72) %7)
          to label %8 unwind label %18

8:                                                ; preds = %1
  %9 = getelementptr inbounds nuw %"struct.boost::log::v2_mt_posix::attribute_set::implementation", ptr %5, i32 0, i32 2
  %10 = getelementptr inbounds [16 x %"struct.boost::log::v2_mt_posix::attribute_set::implementation::bucket"], ptr %9, i32 0, i32 0
  %11 = getelementptr inbounds %"struct.boost::log::v2_mt_posix::attribute_set::implementation::bucket", ptr %10, i64 16
  br label %12

12:                                               ; preds = %14, %8
  %13 = phi ptr [ %10, %8 ], [ %15, %14 ]
  invoke void @_ZN5boost3log11v2_mt_posix13attribute_set14implementation6bucketC2Ev(ptr noundef nonnull align 8 dereferenceable(16) %13)
          to label %14 unwind label %22

14:                                               ; preds = %12
  %15 = getelementptr inbounds %"struct.boost::log::v2_mt_posix::attribute_set::implementation::bucket", ptr %13, i64 1
  %16 = icmp eq ptr %15, %11
  br i1 %16, label %17, label %12

17:                                               ; preds = %14
  ret void

18:                                               ; preds = %1
  %19 = landingpad { ptr, i32 }
          cleanup
  %20 = extractvalue { ptr, i32 } %19, 0
  store ptr %20, ptr %3, align 8
  %21 = extractvalue { ptr, i32 } %19, 1
  store i32 %21, ptr %4, align 4
  br label %26

22:                                               ; preds = %12
  %23 = landingpad { ptr, i32 }
          cleanup
  %24 = extractvalue { ptr, i32 } %23, 0
  store ptr %24, ptr %3, align 8
  %25 = extractvalue { ptr, i32 } %23, 1
  store i32 %25, ptr %4, align 4
  call void @_ZN5boost3log11v2_mt_posix14pool_allocatorINS1_13attribute_set4nodeEED2Ev(ptr noundef nonnull align 8 dereferenceable(72) %7) #13
  br label %26

26:                                               ; preds = %22, %18
  call void @_ZN5boost9intrusive9list_implINS0_23derivation_value_traitsINS_3log11v2_mt_posix13attribute_set4nodeENS5_14implementation11node_traitsELNS0_14link_mode_typeE0EEEmLb1EvED2Ev(ptr noundef nonnull align 8 dereferenceable(24) %6) #13
  br label %27

27:                                               ; preds = %26
  %28 = load ptr, ptr %3, align 8
  %29 = load i32, ptr %4, align 4
  %30 = insertvalue { ptr, i32 } poison, ptr %28, 0
  %31 = insertvalue { ptr, i32 } %30, i32 %29, 1
  resume { ptr, i32 } %31
}

; Function Attrs: mustprogress uwtable
define void @_ZN5boost3log11v2_mt_posix13attribute_setC2Ev(ptr noundef nonnull align 8 dereferenceable(8) %0) unnamed_addr #0 align 2 personality ptr @__gxx_personality_v0 {
  %2 = alloca ptr, align 8
  %3 = alloca ptr, align 8
  %4 = alloca i32, align 4
  store ptr %0, ptr %2, align 8, !tbaa !7
  %5 = load ptr, ptr %2, align 8
  %6 = getelementptr inbounds nuw %"class.boost::log::v2_mt_posix::attribute_set", ptr %5, i32 0, i32 0
  %7 = call noalias noundef nonnull ptr @_Znwm(i64 noundef 352) #17
  invoke void @_ZN5boost3log11v2_mt_posix13attribute_set14implementationC2Ev(ptr noundef nonnull align 8 dereferenceable(352) %7)
          to label %8 unwind label %9

8:                                                ; preds = %1
  store ptr %7, ptr %6, align 8, !tbaa !9
  ret void

9:                                                ; preds = %1
  %10 = landingpad { ptr, i32 }
          cleanup
  %11 = extractvalue { ptr, i32 } %10, 0
  store ptr %11, ptr %3, align 8
  %12 = extractvalue { ptr, i32 } %10, 1
  store i32 %12, ptr %4, align 4
  call void @_ZdlPvm(ptr noundef %7, i64 noundef 352) #18
  br label %13

13:                                               ; preds = %9
  %14 = load ptr, ptr %3, align 8
  %15 = load i32, ptr %4, align 4
  %16 = insertvalue { ptr, i32 } poison, ptr %14, 0
  %17 = insertvalue { ptr, i32 } %16, i32 %15, 1
  resume { ptr, i32 } %17
}