; Function Attrs: mustprogress uwtable
define void @_ZN5boost3log11v2_mt_posix13attribute_setC2Ev(ptr nocapture noundef nonnull writeonly align 8 dereferenceable(8) %0) unnamed_addr #0 align 2 personality ptr @__gxx_personality_v0 {
  %2 = tail call noalias noundef nonnull dereferenceable(352) ptr @_Znwm(i64 noundef 352) #15
  %3 = getelementptr inbounds nuw i8, ptr %2, i64 8
  %4 = getelementptr inbounds nuw i8, ptr %2, i64 16
  store i64 0, ptr %2, align 8
  store ptr %3, ptr %4, align 8, !tbaa !6
  store ptr %3, ptr %3, align 8, !tbaa !10
  %5 = getelementptr inbounds nuw i8, ptr %2, i64 88
  tail call void @llvm.memset.p0.i64(ptr noundef nonnull align 8 dereferenceable(264) %5, i8 0, i64 264, i1 false)
  store ptr %2, ptr %0, align 8, !tbaa !11
  ret void
}